target datalayout = "e-m:e-p270:32:32-p271:32:32-p272:64:64-i64:64-i128:128-f80:128-n8:16:32:64-S128"
target triple = "x86_64-pc-linux-gnu"

%struct.png_struct_def = type { [1 x %struct.__jmp_buf_tag], ptr, ptr, i64, ptr, ptr, ptr, ptr, ptr, ptr, ptr, ptr, ptr, i8, i8, i32, i32, i32, i32, %struct.z_stream_s, ptr, i32, i32, i32, i32, i32, i32, i32, i32, i32, i32, i32, i32, i32, i32, i32, i32, i32, i32, i32, i32, i64, i32, i32, i32, ptr, ptr, ptr, ptr, i64, i32, i32, ptr, i16, i32, i16, i8, i8, i8, i8, i8, i8, i8, i8, i8, i8, i8, i8, i8, i8, i8, i16, i8, i32, %struct.png_color_16_struct, %struct.png_color_16_struct, ptr, i32, i32, i32, i32, ptr, ptr, ptr, ptr, ptr, ptr, %struct.png_color_8_struct, %struct.png_color_8_struct, ptr, %struct.png_color_16_struct, ptr, ptr, ptr, ptr, ptr, ptr, ptr, ptr, ptr, i32, i32, i64, i64, i64, i64, i32, i32, ptr, ptr, i32, [29 x i8], i32, ptr, ptr, i32, i32, ptr, i8, i8, i16, i16, ptr, i32, i8, ptr, ptr, ptr, ptr, ptr, ptr, ptr, i8, i32, i32, i32, i64, %struct.png_unknown_chunk_t, i64, ptr, i64, i32, i32, ptr, [4 x ptr], %struct.png_colorspace }
%struct.__jmp_buf_tag = type { [8 x i64], i32, %struct.__sigset_t }
%struct.__sigset_t = type { [16 x i64] }
%struct.z_stream_s = type { ptr, i32, i64, ptr, i32, i64, ptr, ptr, ptr, ptr, ptr, i32, i64, i64 }
%struct.png_color_8_struct = type { i8, i8, i8, i8, i8 }
%struct.png_color_16_struct = type { i8, i16, i16, i16, i16 }
%struct.png_unknown_chunk_t = type { [5 x i8], ptr, i64, i8 }
%struct.png_colorspace = type { i32, %struct.png_xy, %struct.png_XYZ, i16, i16 }
%struct.png_xy = type { i32, i32, i32, i32, i32, i32, i32, i32 }
%struct.png_XYZ = type { i32, i32, i32, i32, i32, i32, i32, i32, i32 }
%struct.png_image = type { ptr, i32, i32, i32, i32, i32, i32, i32, [64 x i8] }
%struct.png_control = type { ptr, ptr, ptr, ptr, i64, i8 }

@.str.29 = private unnamed_addr constant [24 x i8] c"read beyond end of data\00", align 1
@.str.30 = private unnamed_addr constant [20 x i8] c"invalid memory read\00", align 1

; Function Attrs: nounwind uwtable
define internal void @png_image_memory_read(ptr noundef %0, ptr noundef %1, i64 noundef %2) #0 {
  %4 = alloca ptr, align 8
  %5 = alloca ptr, align 8
  %6 = alloca i64, align 8
  %7 = alloca ptr, align 8
  %8 = alloca ptr, align 8
  %9 = alloca ptr, align 8
  %10 = alloca i64, align 8
  store ptr %0, ptr %4, align 8
  store ptr %1, ptr %5, align 8
  store i64 %2, ptr %6, align 8
  %11 = load ptr, ptr %4, align 8
  %12 = icmp ne ptr %11, null
  br i1 %12, label %13, label %57

13:                                               ; preds = %3
  %14 = load ptr, ptr %4, align 8
  %15 = getelementptr inbounds %struct.png_struct_def, ptr %14, i32 0, i32 9
  %16 = load ptr, ptr %15, align 8
  store ptr %16, ptr %7, align 8
  %17 = load ptr, ptr %7, align 8
  %18 = icmp ne ptr %17, null
  br i1 %18, label %19, label %55

19:                                               ; preds = %13
  %20 = load ptr, ptr %7, align 8
  %21 = getelementptr inbounds %struct.png_image, ptr %20, i32 0, i32 0
  %22 = load ptr, ptr %21, align 8
  store ptr %22, ptr %8, align 8
  %23 = load ptr, ptr %8, align 8
  %24 = icmp ne ptr %23, null
  br i1 %24, label %25, label %54

25:                                               ; preds = %19
  %26 = load ptr, ptr %8, align 8
  %27 = getelementptr inbounds %struct.png_control, ptr %26, i32 0, i32 3
  %28 = load ptr, ptr %27, align 8
  store ptr %28, ptr %9, align 8
  %29 = load ptr, ptr %8, align 8
  %30 = getelementptr inbounds %struct.png_control, ptr %29, i32 0, i32 4
  %31 = load i64, ptr %30, align 8
  store i64 %31, ptr %10, align 8
  %32 = load ptr, ptr %9, align 8
  %33 = icmp ne ptr %32, null
  br i1 %33, label %34, label %52

34:                                               ; preds = %25
  %35 = load i64, ptr %10, align 8
  %36 = load i64, ptr %6, align 8
  %37 = icmp uge i64 %35, %36
  br i1 %37, label %38, label %52

38:                                               ; preds = %34
  %39 = load ptr, ptr %5, align 8
  %40 = load ptr, ptr %9, align 8
  %41 = load i64, ptr %6, align 8
  call void @llvm.memcpy.p0.p0.i64(ptr align 1 %39, ptr align 1 %40, i64 %41, i1 false)
  %42 = load ptr, ptr %9, align 8
  %43 = load i64, ptr %6, align 8
  %44 = getelementptr inbounds i8, ptr %42, i64 %43
  %45 = load ptr, ptr %8, align 8
  %46 = getelementptr inbounds %struct.png_control, ptr %45, i32 0, i32 3
  store ptr %44, ptr %46, align 8
  %47 = load i64, ptr %10, align 8
  %48 = load i64, ptr %6, align 8
  %49 = sub i64 %47, %48
  %50 = load ptr, ptr %8, align 8
  %51 = getelementptr inbounds %struct.png_control, ptr %50, i32 0, i32 4
  store i64 %49, ptr %51, align 8
  br label %57

52:                                               ; preds = %34, %25
  %53 = load ptr, ptr %4, align 8
  call void @png_error(ptr noundef %53, ptr noundef @.str.29) #8
  unreachable

54:                                               ; preds = %19
  br label %55

55:                                               ; preds = %54, %13
  %56 = load ptr, ptr %4, align 8
  call void @png_error(ptr noundef %56, ptr noundef @.str.30) #8
  unreachable

57:                                               ; preds = %38, %3
  ret void
}