; Function Attrs: nounwind uwtable
define internal void @png_image_memory_read(ptr noundef %0, ptr nocapture noundef writeonly %1, i64 noundef %2) #0 {
  %.not = icmp eq ptr %0, null
  br i1 %.not, label %19, label %4

4:                                                ; preds = %3
  %5 = getelementptr inbounds i8, ptr %0, i64 264
  %6 = load ptr, ptr %5, align 8
  %.not25 = icmp eq ptr %6, null
  br i1 %.not25, label %18, label %7

7:                                                ; preds = %4
  %8 = load ptr, ptr %6, align 8
  %.not26 = icmp eq ptr %8, null
  br i1 %.not26, label %18, label %9

9:                                                ; preds = %7
  %10 = getelementptr inbounds i8, ptr %8, i64 24
  %11 = load ptr, ptr %10, align 8
  %12 = getelementptr inbounds i8, ptr %8, i64 32
  %13 = load i64, ptr %12, align 8
  %.not27 = icmp eq ptr %11, null
  %.not28 = icmp ult i64 %13, %2
  %or.cond = select i1 %.not27, i1 true, i1 %.not28
  br i1 %or.cond, label %17, label %14

14:                                               ; preds = %9
  tail call void @llvm.memcpy.p0.p0.i64(ptr align 1 %1, ptr nonnull align 1 %11, i64 %2, i1 false)
  %15 = getelementptr inbounds i8, ptr %11, i64 %2
  store ptr %15, ptr %10, align 8
  %16 = sub i64 %13, %2
  store i64 %16, ptr %12, align 8
  br label %19

17:                                               ; preds = %9
  tail call void @png_error(ptr noundef nonnull %0, ptr noundef nonnull @.str.29) #12
  unreachable

18:                                               ; preds = %7, %4
  tail call void @png_error(ptr noundef nonnull %0, ptr noundef nonnull @.str.30) #12
  unreachable

19:                                               ; preds = %14, %3
  ret void
}